; ModuleID = '61/807.c'
source_filename = "61/807.c"
target datalayout = "e-m:e-p270:32:32-p271:32:32-p272:64:64-i64:64-f80:128-n8:16:32:64-S128"
target triple = "x86_64-pc-linux-gnu"

@.str = private unnamed_addr constant [3 x i8] c"%d\00", align 1
@.str.1 = private unnamed_addr constant [2 x i8] c"\0A\00", align 1
@.str.2 = private unnamed_addr constant [4 x i8] c"%d\0A\00", align 1

; Function Attrs: noinline nounwind uwtable
define dso_local i32 @main() #0 {
  %1 = alloca i32, align 4
  %2 = alloca i32, align 4
  %3 = alloca [20 x i32], align 16
  %4 = alloca [20 x i32], align 16
  %5 = alloca i32, align 4
  %6 = alloca i32, align 4
  store i32 0, i32* %1, align 4
  %7 = call i32 (i8*, ...) @__isoc99_scanf(i8* getelementptr inbounds ([3 x i8], [3 x i8]* @.str, i64 0, i64 0), i32* %2)
  %8 = call i32 (i8*, ...) @printf(i8* getelementptr inbounds ([2 x i8], [2 x i8]* @.str.1, i64 0, i64 0))
  store i32 1, i32* %5, align 4
  br label %9

9:                                                ; preds = %19, %0
  %10 = load i32, i32* %5, align 4
  %11 = load i32, i32* %2, align 4
  %12 = icmp sle i32 %10, %11
  br i1 %12, label %13, label %22

13:                                               ; preds = %9
  %14 = load i32, i32* %5, align 4
  %15 = sext i32 %14 to i64
  %16 = getelementptr inbounds [20 x i32], [20 x i32]* %3, i64 0, i64 %15
  %17 = call i32 (i8*, ...) @__isoc99_scanf(i8* getelementptr inbounds ([3 x i8], [3 x i8]* @.str, i64 0, i64 0), i32* %16)
  %18 = call i32 (i8*, ...) @printf(i8* getelementptr inbounds ([2 x i8], [2 x i8]* @.str.1, i64 0, i64 0))
  br label %19

19:                                               ; preds = %13
  %20 = load i32, i32* %5, align 4
  %21 = add nsw i32 %20, 1
  store i32 %21, i32* %5, align 4
  br label %9

22:                                               ; preds = %9
  %23 = getelementptr inbounds [20 x i32], [20 x i32]* %4, i64 0, i64 1
  store i32 1, i32* %23, align 4
  %24 = getelementptr inbounds [20 x i32], [20 x i32]* %4, i64 0, i64 2
  store i32 1, i32* %24, align 8
  store i32 3, i32* %6, align 4
  br label %25

25:                                               ; preds = %43, %22
  %26 = load i32, i32* %6, align 4
  %27 = icmp sle i32 %26, 20
  br i1 %27, label %28, label %46

28:                                               ; preds = %25
  %29 = load i32, i32* %6, align 4
  %30 = sub nsw i32 %29, 1
  %31 = sext i32 %30 to i64
  %32 = getelementptr inbounds [20 x i32], [20 x i32]* %4, i64 0, i64 %31
  %33 = load i32, i32* %32, align 4
  %34 = load i32, i32* %6, align 4
  %35 = sub nsw i32 %34, 2
  %36 = sext i32 %35 to i64
  %37 = getelementptr inbounds [20 x i32], [20 x i32]* %4, i64 0, i64 %36
  %38 = load i32, i32* %37, align 4
  %39 = add nsw i32 %33, %38
  %40 = load i32, i32* %6, align 4
  %41 = sext i32 %40 to i64
  %42 = getelementptr inbounds [20 x i32], [20 x i32]* %4, i64 0, i64 %41
  store i32 %39, i32* %42, align 4
  br label %43

43:                                               ; preds = %28
  %44 = load i32, i32* %6, align 4
  %45 = add nsw i32 %44, 1
  store i32 %45, i32* %6, align 4
  br label %25

46:                                               ; preds = %25
  store i32 1, i32* %5, align 4
  br label %47

47:                                               ; preds = %61, %46
  %48 = load i32, i32* %5, align 4
  %49 = load i32, i32* %2, align 4
  %50 = icmp sle i32 %48, %49
  br i1 %50, label %51, label %64

51:                                               ; preds = %47
  %52 = load i32, i32* %5, align 4
  %53 = sext i32 %52 to i64
  %54 = getelementptr inbounds [20 x i32], [20 x i32]* %3, i64 0, i64 %53
  %55 = load i32, i32* %54, align 4
  %56 = sext i32 %55 to i64
  %57 = getelementptr inbounds [20 x i32], [20 x i32]* %4, i64 0, i64 %56
  %58 = load i32, i32* %57, align 4
  %59 = call i32 (i8*, ...) @printf(i8* getelementptr inbounds ([4 x i8], [4 x i8]* @.str.2, i64 0, i64 0), i32 %58)
  %60 = call i32 (i8*, ...) @printf(i8* getelementptr inbounds ([2 x i8], [2 x i8]* @.str.1, i64 0, i64 0))
  br label %61

61:                                               ; preds = %51
  %62 = load i32, i32* %5, align 4
  %63 = add nsw i32 %62, 1
  store i32 %63, i32* %5, align 4
  br label %47

64:                                               ; preds = %47
  %65 = call i32 @getchar()
  %66 = call i32 @getchar()
  %67 = load i32, i32* %1, align 4
  ret i32 %67
}

declare dso_local i32 @__isoc99_scanf(i8*, ...) #1

declare dso_local i32 @printf(i8*, ...) #1

declare dso_local i32 @getchar() #1


!llvm.module.flags = !{!0}
!llvm.ident = !{!1}

!0 = !{i32 1, !"wchar_size", i32 4}
!1 = !{!"clang version 10.0.0-4ubuntu1 "}
